target datalayout = "e-m:e-p270:32:32-p271:32:32-p272:64:64-i64:64-i128:128-f80:128-n8:16:32:64-S128"
target triple = "x86_64-pc-linux-gnu"

%struct.rlc_result_hash_key = type { i32, i32 }

; Function Attrs: nounwind null_pointer_is_valid sspstrong uwtable
define internal i32 @rlc_result_hash_func(ptr noundef %0) #4 {
  %2 = alloca ptr, align 8
  %3 = alloca ptr, align 8
  store ptr %0, ptr %2, align 8
  call void @llvm.lifetime.start.p0(i64 8, ptr %3) #16
  %4 = load ptr, ptr %2, align 8
  store ptr %4, ptr %3, align 8
  %5 = load ptr, ptr %3, align 8
  %6 = getelementptr inbounds nuw %struct.rlc_result_hash_key, ptr %5, i32 0, i32 0
  %7 = load i32, ptr %6, align 4
  %8 = load ptr, ptr %3, align 8
  %9 = getelementptr inbounds nuw %struct.rlc_result_hash_key, ptr %8, i32 0, i32 1
  %10 = load i32, ptr %9, align 4
  %11 = and i32 %10, 1023
  %12 = add i32 %7, %11
  %13 = load ptr, ptr %3, align 8
  %14 = getelementptr inbounds nuw %struct.rlc_result_hash_key, ptr %13, i32 0, i32 1
  %15 = load i32, ptr %14, align 4
  %16 = lshr i32 %15, 10
  %17 = and i32 %16, 3
  %18 = add i32 %12, %17
  %19 = load ptr, ptr %3, align 8
  %20 = getelementptr inbounds nuw %struct.rlc_result_hash_key, ptr %19, i32 0, i32 1
  %21 = load i32, ptr %20, align 4
  %22 = lshr i32 %21, 12
  %23 = and i32 %22, 31
  %24 = add i32 %18, %23
  %25 = load ptr, ptr %3, align 8
  %26 = getelementptr inbounds nuw %struct.rlc_result_hash_key, ptr %25, i32 0, i32 1
  %27 = load i32, ptr %26, align 4
  %28 = lshr i32 %27, 17
  %29 = and i32 %28, 1
  %30 = add i32 %24, %29
  call void @llvm.lifetime.end.p0(i64 8, ptr %3) #16
  ret i32 %30
}