; Function Attrs: mustprogress nofree norecurse nosync nounwind null_pointer_is_valid sspstrong willreturn memory(argmem: read) uwtable
define internal i32 @rlc_result_hash_func(ptr noundef readonly captures(none) %0) #4 {
  %2 = load i32, ptr %0, align 4
  %3 = getelementptr inbounds nuw i8, ptr %0, i64 4
  %4 = load i32, ptr %3, align 4
  %5 = and i32 %4, 1023
  %6 = add i32 %5, %2
  %7 = lshr i32 %4, 10
  %8 = and i32 %7, 3
  %9 = add i32 %6, %8
  %10 = lshr i32 %4, 12
  %11 = and i32 %10, 31
  %12 = add i32 %9, %11
  %13 = lshr i32 %4, 17
  %14 = and i32 %13, 1
  %15 = add i32 %12, %14
  ret i32 %15
}